target datalayout = "e-m:e-p270:32:32-p271:32:32-p272:64:64-i64:64-i128:128-f80:128-n8:16:32:64-S128"
target triple = "x86_64-pc-linux-gnu"

%class.anon.4 = type { ptr, ptr, ptr }
%"struct.pbrt::BSSRDFTable" = type { %"class.pstd::vector", %"class.pstd::vector", %"class.pstd::vector", %"class.pstd::vector", %"class.pstd::vector" }
%"class.pstd::vector" = type { %"class.pstd::pmr::polymorphic_allocator", ptr, i64, i64 }
%"class.pstd::pmr::polymorphic_allocator" = type { ptr }
%"class.pstd::span" = type { ptr, i64 }
%"class.pstd::span.11" = type { ptr, i64 }

; Function Attrs: noinline noreturn nounwind uwtable
define linkonce_odr hidden void @__clang_call_terminate(ptr noundef %0) #11 comdat {
  %2 = call ptr @__cxa_begin_catch(ptr %0) #17
  call void @_ZSt9terminatev() #18
  unreachable
}

; Function Attrs: mustprogress nounwind uwtable
define linkonce_odr dso_local noundef ptr @_ZNK4pstd6vectorIfNS_3pmr21polymorphic_allocatorIfEEE4dataEv(ptr noundef nonnull align 8 dereferenceable(32) %0) #6 comdat align 2 {
  %2 = alloca ptr, align 8
  store ptr %0, ptr %2, align 8, !tbaa !48
  %3 = load ptr, ptr %2, align 8
  %4 = getelementptr inbounds nuw %"class.pstd::vector", ptr %3, i32 0, i32 1
  %5 = load ptr, ptr %4, align 8, !tbaa !52
  ret ptr %5
}

; Function Attrs: mustprogress nounwind uwtable
define linkonce_odr dso_local void @_ZN4pstd4spanIfEC2EPfm(ptr noundef nonnull align 8 dereferenceable(16) %0, ptr noundef %1, i64 noundef %2) unnamed_addr #6 comdat align 2 {
  %4 = alloca ptr, align 8
  %5 = alloca ptr, align 8
  %6 = alloca i64, align 8
  store ptr %0, ptr %4, align 8, !tbaa !202
  store ptr %1, ptr %5, align 8, !tbaa !31
  store i64 %2, ptr %6, align 8, !tbaa !50
  %7 = load ptr, ptr %4, align 8
  %8 = getelementptr inbounds nuw %"class.pstd::span.11", ptr %7, i32 0, i32 0
  %9 = load ptr, ptr %5, align 8, !tbaa !31
  store ptr %9, ptr %8, align 8, !tbaa !204
  %10 = getelementptr inbounds nuw %"class.pstd::span.11", ptr %7, i32 0, i32 1
  %11 = load i64, ptr %6, align 8, !tbaa !50
  store i64 %11, ptr %10, align 8, !tbaa !206
  ret void
}

; Function Attrs: mustprogress nounwind uwtable
define linkonce_odr dso_local void @_ZN4pstd4spanIKfEC2EPS1_m(ptr noundef nonnull align 8 dereferenceable(16) %0, ptr noundef %1, i64 noundef %2) unnamed_addr #6 comdat align 2 {
  %4 = alloca ptr, align 8
  %5 = alloca ptr, align 8
  %6 = alloca i64, align 8
  store ptr %0, ptr %4, align 8, !tbaa !197
  store ptr %1, ptr %5, align 8, !tbaa !31
  store i64 %2, ptr %6, align 8, !tbaa !50
  %7 = load ptr, ptr %4, align 8
  %8 = getelementptr inbounds nuw %"class.pstd::span", ptr %7, i32 0, i32 0
  %9 = load ptr, ptr %5, align 8, !tbaa !31
  store ptr %9, ptr %8, align 8, !tbaa !199
  %10 = getelementptr inbounds nuw %"class.pstd::span", ptr %7, i32 0, i32 1
  %11 = load i64, ptr %6, align 8, !tbaa !50
  store i64 %11, ptr %10, align 8, !tbaa !201
  ret void
}

; Function Attrs: mustprogress nounwind uwtable
define linkonce_odr dso_local void @_ZN4pstd4spanIKfEC2INS_6vectorIfNS_3pmr21polymorphic_allocatorIfEEEEvS8_EERKT_(ptr noundef nonnull align 8 dereferenceable(16) %0, ptr noundef nonnull align 8 dereferenceable(32) %1) unnamed_addr #6 comdat align 2 personality ptr @__gxx_personality_v0 {
  %3 = alloca ptr, align 8
  %4 = alloca ptr, align 8
  store ptr %0, ptr %3, align 8, !tbaa !197
  store ptr %1, ptr %4, align 8, !tbaa !48
  %5 = load ptr, ptr %3, align 8
  %6 = load ptr, ptr %4, align 8, !tbaa !48
  %7 = invoke noundef ptr @_ZNK4pstd6vectorIfNS_3pmr21polymorphic_allocatorIfEEE4dataEv(ptr noundef nonnull align 8 dereferenceable(32) %6)
          to label %8 unwind label %12

8:                                                ; preds = %2
  %9 = load ptr, ptr %4, align 8, !tbaa !48
  %10 = call noundef i64 @_ZNK4pstd6vectorIfNS_3pmr21polymorphic_allocatorIfEEE4sizeEv(ptr noundef nonnull align 8 dereferenceable(32) %9)
  invoke void @_ZN4pstd4spanIKfEC2EPS1_m(ptr noundef nonnull align 8 dereferenceable(16) %5, ptr noundef %7, i64 noundef %10)
          to label %11 unwind label %12

11:                                               ; preds = %8
  ret void

12:                                               ; preds = %8, %2
  %13 = landingpad { ptr, i32 }
          catch ptr null
  %14 = extractvalue { ptr, i32 } %13, 0
  call void @__clang_call_terminate(ptr %14) #18
  unreachable
}

; Function Attrs: mustprogress nounwind uwtable
define linkonce_odr dso_local noundef nonnull align 4 dereferenceable(4) ptr @_ZN4pstd6vectorIfNS_3pmr21polymorphic_allocatorIfEEEixEm(ptr noundef nonnull align 8 dereferenceable(32) %0, i64 noundef %1) #6 comdat align 2 {
  %3 = alloca ptr, align 8
  %4 = alloca i64, align 8
  store ptr %0, ptr %3, align 8, !tbaa !48
  store i64 %1, ptr %4, align 8, !tbaa !50
  %5 = load ptr, ptr %3, align 8
  br label %6

6:                                                ; preds = %2
  br label %7

7:                                                ; preds = %6
  %8 = getelementptr inbounds nuw %"class.pstd::vector", ptr %5, i32 0, i32 1
  %9 = load ptr, ptr %8, align 8, !tbaa !52
  %10 = load i64, ptr %4, align 8, !tbaa !50
  %11 = getelementptr inbounds nuw float, ptr %9, i64 %10
  ret ptr %11
}

; Function Attrs: mustprogress nounwind uwtable
define linkonce_odr dso_local noundef i64 @_ZNK4pstd6vectorIfNS_3pmr21polymorphic_allocatorIfEEE4sizeEv(ptr noundef nonnull align 8 dereferenceable(32) %0) #6 comdat align 2 {
  %2 = alloca ptr, align 8
  store ptr %0, ptr %2, align 8, !tbaa !48
  %3 = load ptr, ptr %2, align 8
  %4 = getelementptr inbounds nuw %"class.pstd::vector", ptr %3, i32 0, i32 3
  %5 = load i64, ptr %4, align 8, !tbaa !56
  ret i64 %5
}

; Function Attrs: inlinehint mustprogress uwtable
define internal void @"_ZZN4pbrt26ComputeBeamDiffusionBSSRDFEffPNS_11BSSRDFTableEENK3$_0clEi"(ptr noundef nonnull align 8 dereferenceable(24) %0, i32 noundef %1) #5 align 2 {
  %3 = alloca ptr, align 8
  %4 = alloca i32, align 4
  %5 = alloca i64, align 8
  %6 = alloca i32, align 4
  %7 = alloca float, align 4
  %8 = alloca float, align 4
  %9 = alloca %"class.pstd::span", align 8
  %10 = alloca %"class.pstd::span", align 8
  %11 = alloca %"class.pstd::span.11", align 8
  store ptr %0, ptr %3, align 8, !tbaa !13
  store i32 %1, ptr %4, align 4, !tbaa !38
  %12 = load ptr, ptr %3, align 8
  call void @llvm.lifetime.start.p0(i64 8, ptr %5) #17
  %13 = getelementptr inbounds nuw %class.anon.4, ptr %12, i32 0, i32 0
  %14 = load ptr, ptr %13, align 8, !tbaa !192
  %15 = load ptr, ptr %14, align 8, !tbaa !37
  %16 = getelementptr inbounds nuw %"struct.pbrt::BSSRDFTable", ptr %15, i32 0, i32 1
  %17 = call noundef i64 @_ZNK4pstd6vectorIfNS_3pmr21polymorphic_allocatorIfEEE4sizeEv(ptr noundef nonnull align 8 dereferenceable(32) %16)
  store i64 %17, ptr %5, align 8, !tbaa !50
  call void @llvm.lifetime.start.p0(i64 4, ptr %6) #17
  store i32 0, ptr %6, align 4, !tbaa !38
  br label %18

18:                                               ; preds = %79, %2
  %19 = load i32, ptr %6, align 4, !tbaa !38
  %20 = sext i32 %19 to i64
  %21 = load i64, ptr %5, align 8, !tbaa !50
  %22 = icmp ult i64 %20, %21
  br i1 %22, label %24, label %23

23:                                               ; preds = %18
  call void @llvm.lifetime.end.p0(i64 4, ptr %6) #17
  br label %82

24:                                               ; preds = %18
  call void @llvm.lifetime.start.p0(i64 4, ptr %7) #17
  %25 = getelementptr inbounds nuw %class.anon.4, ptr %12, i32 0, i32 0
  %26 = load ptr, ptr %25, align 8, !tbaa !192
  %27 = load ptr, ptr %26, align 8, !tbaa !37
  %28 = getelementptr inbounds nuw %"struct.pbrt::BSSRDFTable", ptr %27, i32 0, i32 0
  %29 = load i32, ptr %4, align 4, !tbaa !38
  %30 = sext i32 %29 to i64
  %31 = call noundef nonnull align 4 dereferenceable(4) ptr @_ZN4pstd6vectorIfNS_3pmr21polymorphic_allocatorIfEEEixEm(ptr noundef nonnull align 8 dereferenceable(32) %28, i64 noundef %30)
  %32 = load float, ptr %31, align 4, !tbaa !9
  store float %32, ptr %7, align 4, !tbaa !9
  call void @llvm.lifetime.start.p0(i64 4, ptr %8) #17
  %33 = getelementptr inbounds nuw %class.anon.4, ptr %12, i32 0, i32 0
  %34 = load ptr, ptr %33, align 8, !tbaa !192
  %35 = load ptr, ptr %34, align 8, !tbaa !37
  %36 = getelementptr inbounds nuw %"struct.pbrt::BSSRDFTable", ptr %35, i32 0, i32 1
  %37 = load i32, ptr %6, align 4, !tbaa !38
  %38 = sext i32 %37 to i64
  %39 = call noundef nonnull align 4 dereferenceable(4) ptr @_ZN4pstd6vectorIfNS_3pmr21polymorphic_allocatorIfEEEixEm(ptr noundef nonnull align 8 dereferenceable(32) %36, i64 noundef %38)
  %40 = load float, ptr %39, align 4, !tbaa !9
  store float %40, ptr %8, align 4, !tbaa !9
  %41 = load float, ptr %8, align 4, !tbaa !9
  %42 = fmul float 0x401921FB60000000, %41
  %43 = load float, ptr %7, align 4, !tbaa !9
  %44 = load float, ptr %7, align 4, !tbaa !9
  %45 = fsub float 1.000000e+00, %44
  %46 = getelementptr inbounds nuw %class.anon.4, ptr %12, i32 0, i32 1
  %47 = load ptr, ptr %46, align 8, !tbaa !194
  %48 = load float, ptr %47, align 4, !tbaa !9
  %49 = getelementptr inbounds nuw %class.anon.4, ptr %12, i32 0, i32 2
  %50 = load ptr, ptr %49, align 8, !tbaa !195
  %51 = load float, ptr %50, align 4, !tbaa !9
  %52 = load float, ptr %8, align 4, !tbaa !9
  %53 = call noundef float @_ZN4pbrt15BeamDiffusionSSEfffff(float noundef %43, float noundef %45, float noundef %48, float noundef %51, float noundef %52)
  %54 = load float, ptr %7, align 4, !tbaa !9
  %55 = load float, ptr %7, align 4, !tbaa !9
  %56 = fsub float 1.000000e+00, %55
  %57 = getelementptr inbounds nuw %class.anon.4, ptr %12, i32 0, i32 1
  %58 = load ptr, ptr %57, align 8, !tbaa !194
  %59 = load float, ptr %58, align 4, !tbaa !9
  %60 = getelementptr inbounds nuw %class.anon.4, ptr %12, i32 0, i32 2
  %61 = load ptr, ptr %60, align 8, !tbaa !195
  %62 = load float, ptr %61, align 4, !tbaa !9
  %63 = load float, ptr %8, align 4, !tbaa !9
  %64 = call noundef float @_ZN4pbrt15BeamDiffusionMSEfffff(float noundef %54, float noundef %56, float noundef %59, float noundef %62, float noundef %63)
  %65 = fadd float %53, %64
  %66 = fmul float %42, %65
  %67 = getelementptr inbounds nuw %class.anon.4, ptr %12, i32 0, i32 0
  %68 = load ptr, ptr %67, align 8, !tbaa !192
  %69 = load ptr, ptr %68, align 8, !tbaa !37
  %70 = getelementptr inbounds nuw %"struct.pbrt::BSSRDFTable", ptr %69, i32 0, i32 2
  %71 = load i32, ptr %4, align 4, !tbaa !38
  %72 = sext i32 %71 to i64
  %73 = load i64, ptr %5, align 8, !tbaa !50
  %74 = mul i64 %72, %73
  %75 = load i32, ptr %6, align 4, !tbaa !38
  %76 = sext i32 %75 to i64
  %77 = add i64 %74, %76
  %78 = call noundef nonnull align 4 dereferenceable(4) ptr @_ZN4pstd6vectorIfNS_3pmr21polymorphic_allocatorIfEEEixEm(ptr noundef nonnull align 8 dereferenceable(32) %70, i64 noundef %77)
  store float %66, ptr %78, align 4, !tbaa !9
  call void @llvm.lifetime.end.p0(i64 4, ptr %8) #17
  call void @llvm.lifetime.end.p0(i64 4, ptr %7) #17
  br label %79

79:                                               ; preds = %24
  %80 = load i32, ptr %6, align 4, !tbaa !38
  %81 = add nsw i32 %80, 1
  store i32 %81, ptr %6, align 4, !tbaa !38
  br label %18, !llvm.loop !196

82:                                               ; preds = %23
  %83 = getelementptr inbounds nuw %class.anon.4, ptr %12, i32 0, i32 0
  %84 = load ptr, ptr %83, align 8, !tbaa !192
  %85 = load ptr, ptr %84, align 8, !tbaa !37
  %86 = getelementptr inbounds nuw %"struct.pbrt::BSSRDFTable", ptr %85, i32 0, i32 1
  call void @_ZN4pstd4spanIKfEC2INS_6vectorIfNS_3pmr21polymorphic_allocatorIfEEEEvS8_EERKT_(ptr noundef nonnull align 8 dereferenceable(16) %9, ptr noundef nonnull align 8 dereferenceable(32) %86) #17
  %87 = getelementptr inbounds nuw %class.anon.4, ptr %12, i32 0, i32 0
  %88 = load ptr, ptr %87, align 8, !tbaa !192
  %89 = load ptr, ptr %88, align 8, !tbaa !37
  %90 = getelementptr inbounds nuw %"struct.pbrt::BSSRDFTable", ptr %89, i32 0, i32 2
  %91 = load i32, ptr %4, align 4, !tbaa !38
  %92 = sext i32 %91 to i64
  %93 = load i64, ptr %5, align 8, !tbaa !50
  %94 = mul i64 %92, %93
  %95 = call noundef nonnull align 4 dereferenceable(4) ptr @_ZN4pstd6vectorIfNS_3pmr21polymorphic_allocatorIfEEEixEm(ptr noundef nonnull align 8 dereferenceable(32) %90, i64 noundef %94)
  %96 = load i64, ptr %5, align 8, !tbaa !50
  call void @_ZN4pstd4spanIKfEC2EPS1_m(ptr noundef nonnull align 8 dereferenceable(16) %10, ptr noundef %95, i64 noundef %96)
  %97 = getelementptr inbounds nuw %class.anon.4, ptr %12, i32 0, i32 0
  %98 = load ptr, ptr %97, align 8, !tbaa !192
  %99 = load ptr, ptr %98, align 8, !tbaa !37
  %100 = getelementptr inbounds nuw %"struct.pbrt::BSSRDFTable", ptr %99, i32 0, i32 4
  %101 = load i32, ptr %4, align 4, !tbaa !38
  %102 = sext i32 %101 to i64
  %103 = load i64, ptr %5, align 8, !tbaa !50
  %104 = mul i64 %102, %103
  %105 = call noundef nonnull align 4 dereferenceable(4) ptr @_ZN4pstd6vectorIfNS_3pmr21polymorphic_allocatorIfEEEixEm(ptr noundef nonnull align 8 dereferenceable(32) %100, i64 noundef %104)
  %106 = load i64, ptr %5, align 8, !tbaa !50
  call void @_ZN4pstd4spanIfEC2EPfm(ptr noundef nonnull align 8 dereferenceable(16) %11, ptr noundef %105, i64 noundef %106)
  %107 = getelementptr inbounds nuw { ptr, i64 }, ptr %9, i32 0, i32 0
  %108 = load ptr, ptr %107, align 8
  %109 = getelementptr inbounds nuw { ptr, i64 }, ptr %9, i32 0, i32 1
  %110 = load i64, ptr %109, align 8
  %111 = getelementptr inbounds nuw { ptr, i64 }, ptr %10, i32 0, i32 0
  %112 = load ptr, ptr %111, align 8
  %113 = getelementptr inbounds nuw { ptr, i64 }, ptr %10, i32 0, i32 1
  %114 = load i64, ptr %113, align 8
  %115 = getelementptr inbounds nuw { ptr, i64 }, ptr %11, i32 0, i32 0
  %116 = load ptr, ptr %115, align 8
  %117 = getelementptr inbounds nuw { ptr, i64 }, ptr %11, i32 0, i32 1
  %118 = load i64, ptr %117, align 8
  %119 = call noundef float @_ZN4pbrt19IntegrateCatmullRomEN4pstd4spanIKfEES3_NS1_IfEE(ptr %108, i64 %110, ptr %112, i64 %114, ptr %116, i64 %118)
  %120 = getelementptr inbounds nuw %class.anon.4, ptr %12, i32 0, i32 0
  %121 = load ptr, ptr %120, align 8, !tbaa !192
  %122 = load ptr, ptr %121, align 8, !tbaa !37
  %123 = getelementptr inbounds nuw %"struct.pbrt::BSSRDFTable", ptr %122, i32 0, i32 3
  %124 = load i32, ptr %4, align 4, !tbaa !38
  %125 = sext i32 %124 to i64
  %126 = call noundef nonnull align 4 dereferenceable(4) ptr @_ZN4pstd6vectorIfNS_3pmr21polymorphic_allocatorIfEEEixEm(ptr noundef nonnull align 8 dereferenceable(32) %123, i64 noundef %125)
  store float %119, ptr %126, align 4, !tbaa !9
  call void @llvm.lifetime.end.p0(i64 8, ptr %5) #17
  ret void
}

; Function Attrs: mustprogress nounwind uwtable
define linkonce_odr dso_local noundef ptr @_ZNKSt9_Any_data9_M_accessEv(ptr noundef nonnull align 8 dereferenceable(16) %0) #6 comdat align 2 {
  %2 = alloca ptr, align 8
  store ptr %0, ptr %2, align 8, !tbaa !80
  %3 = load ptr, ptr %2, align 8
  %4 = getelementptr inbounds [16 x i8], ptr %3, i64 0, i64 0
  ret ptr %4
}

; Function Attrs: mustprogress uwtable
define internal void @"_ZSt13__invoke_implIvRZN4pbrt26ComputeBeamDiffusionBSSRDFEffPNS0_11BSSRDFTableEE3$_0JlEET_St14__invoke_otherOT0_DpOT1_"(ptr noundef nonnull align 8 dereferenceable(24) %0, ptr noundef nonnull align 8 dereferenceable(8) %1) #1 {
  %3 = alloca ptr, align 8
  %4 = alloca ptr, align 8
  store ptr %0, ptr %3, align 8, !tbaa !13
  store ptr %1, ptr %4, align 8, !tbaa !82
  %5 = load ptr, ptr %3, align 8, !tbaa !13
  %6 = load ptr, ptr %4, align 8, !tbaa !82
  %7 = load i64, ptr %6, align 8, !tbaa !50
  %8 = trunc i64 %7 to i32
  call void @"_ZZN4pbrt26ComputeBeamDiffusionBSSRDFEffPNS_11BSSRDFTableEENK3$_0clEi"(ptr noundef nonnull align 8 dereferenceable(24) %5, i32 noundef %8)
  ret void
}

; Function Attrs: mustprogress nounwind uwtable
define internal noundef nonnull align 8 dereferenceable(8) ptr @"_ZNKSt9_Any_data9_M_accessIPZN4pbrt26ComputeBeamDiffusionBSSRDFEffPNS1_11BSSRDFTableEE3$_0EERKT_v"(ptr noundef nonnull align 8 dereferenceable(16) %0) #6 align 2 {
  %2 = alloca ptr, align 8
  store ptr %0, ptr %2, align 8, !tbaa !80
  %3 = load ptr, ptr %2, align 8
  %4 = call noundef ptr @_ZNKSt9_Any_data9_M_accessEv(ptr noundef nonnull align 8 dereferenceable(16) %3) #17
  ret ptr %4
}

; Function Attrs: mustprogress uwtable
define internal void @"_ZSt10__invoke_rIvRZN4pbrt26ComputeBeamDiffusionBSSRDFEffPNS0_11BSSRDFTableEE3$_0JlEENSt9enable_ifIX16is_invocable_r_vIT_T0_DpT1_EES6_E4typeEOS7_DpOS8_"(ptr noundef nonnull align 8 dereferenceable(24) %0, ptr noundef nonnull align 8 dereferenceable(8) %1) #1 {
  %3 = alloca ptr, align 8
  %4 = alloca ptr, align 8
  store ptr %0, ptr %3, align 8, !tbaa !13
  store ptr %1, ptr %4, align 8, !tbaa !82
  %5 = load ptr, ptr %3, align 8, !tbaa !13
  %6 = load ptr, ptr %4, align 8, !tbaa !82
  call void @"_ZSt13__invoke_implIvRZN4pbrt26ComputeBeamDiffusionBSSRDFEffPNS0_11BSSRDFTableEE3$_0JlEET_St14__invoke_otherOT0_DpOT1_"(ptr noundef nonnull align 8 dereferenceable(24) %5, ptr noundef nonnull align 8 dereferenceable(8) %6)
  ret void
}

; Function Attrs: mustprogress nounwind uwtable
define internal noundef ptr @"_ZNSt14_Function_base13_Base_managerIZN4pbrt26ComputeBeamDiffusionBSSRDFEffPNS1_11BSSRDFTableEE3$_0E14_M_get_pointerERKSt9_Any_data"(ptr noundef nonnull align 8 dereferenceable(16) %0) #6 align 2 {
  %2 = alloca ptr, align 8
  store ptr %0, ptr %2, align 8, !tbaa !80
  %3 = load ptr, ptr %2, align 8, !tbaa !80
  %4 = call noundef nonnull align 8 dereferenceable(8) ptr @"_ZNKSt9_Any_data9_M_accessIPZN4pbrt26ComputeBeamDiffusionBSSRDFEffPNS1_11BSSRDFTableEE3$_0EERKT_v"(ptr noundef nonnull align 8 dereferenceable(16) %3) #17
  %5 = load ptr, ptr %4, align 8, !tbaa !13
  ret ptr %5
}

; Function Attrs: mustprogress uwtable
define internal void @"_ZNSt17_Function_handlerIFvlEZN4pbrt26ComputeBeamDiffusionBSSRDFEffPNS1_11BSSRDFTableEE3$_0E9_M_invokeERKSt9_Any_dataOl"(ptr noundef nonnull align 8 dereferenceable(16) %0, ptr noundef nonnull align 8 dereferenceable(8) %1) #1 align 2 {
  %3 = alloca ptr, align 8
  %4 = alloca ptr, align 8
  store ptr %0, ptr %3, align 8, !tbaa !80
  store ptr %1, ptr %4, align 8, !tbaa !82
  %5 = load ptr, ptr %3, align 8, !tbaa !80
  %6 = call noundef ptr @"_ZNSt14_Function_base13_Base_managerIZN4pbrt26ComputeBeamDiffusionBSSRDFEffPNS1_11BSSRDFTableEE3$_0E14_M_get_pointerERKSt9_Any_data"(ptr noundef nonnull align 8 dereferenceable(16) %5) #17
  %7 = load ptr, ptr %4, align 8, !tbaa !82
  call void @"_ZSt10__invoke_rIvRZN4pbrt26ComputeBeamDiffusionBSSRDFEffPNS0_11BSSRDFTableEE3$_0JlEENSt9enable_ifIX16is_invocable_r_vIT_T0_DpT1_EES6_E4typeEOS7_DpOS8_"(ptr noundef nonnull align 8 dereferenceable(24) %6, ptr noundef nonnull align 8 dereferenceable(8) %7)
  ret void
}